target datalayout = "e-m:e-p270:32:32-p271:32:32-p272:64:64-i64:64-i128:128-f80:128-n8:16:32:64-S128"
target triple = "x86_64-pc-linux-gnu"

@.str.70 = private unnamed_addr constant [10 x i8] c"/dev/null\00", align 1

; Function Attrs: nounwind uwtable
define dso_local void @sanitize_stdfds() #0 {
  %1 = alloca i32, align 4
  call void @llvm.lifetime.start.p0(i64 4, ptr %1) #13
  %2 = call i32 (ptr, i32, ...) @xopen(ptr noundef @.str.70, i32 noundef 2)
  store i32 %2, ptr %1, align 4, !tbaa !9
  br label %3

3:                                                ; preds = %6, %0
  %4 = load i32, ptr %1, align 4, !tbaa !9
  %5 = icmp slt i32 %4, 2
  br i1 %5, label %6, label %9

6:                                                ; preds = %3
  %7 = load i32, ptr %1, align 4, !tbaa !9
  %8 = call i32 @xdup(i32 noundef %7)
  store i32 %8, ptr %1, align 4, !tbaa !9
  br label %3, !llvm.loop !107

9:                                                ; preds = %3
  %10 = load i32, ptr %1, align 4, !tbaa !9
  %11 = icmp sgt i32 %10, 2
  br i1 %11, label %12, label %15

12:                                               ; preds = %9
  %13 = load i32, ptr %1, align 4, !tbaa !9
  %14 = call i32 @close(i32 noundef %13)
  br label %15

15:                                               ; preds = %12, %9
  call void @llvm.lifetime.end.p0(i64 4, ptr %1) #13
  ret void
}