; Function Attrs: nounwind uwtable
define dso_local void @sanitize_stdfds() local_unnamed_addr #0 {
  %1 = tail call i32 (ptr, i32, ...) @xopen(ptr noundef nonnull @.str.70, i32 noundef 2) #25
  %2 = icmp slt i32 %1, 2
  br i1 %2, label %.lr.ph, label %._crit_edge

.lr.ph:                                           ; preds = %0, %.lr.ph
  %.04 = phi i32 [ %3, %.lr.ph ], [ %1, %0 ]
  %3 = tail call i32 @xdup(i32 noundef %.04) #25
  %4 = icmp slt i32 %3, 2
  br i1 %4, label %.lr.ph, label %._crit_edge, !llvm.loop !100

._crit_edge:                                      ; preds = %.lr.ph, %0
  %.0.lcssa = phi i32 [ %1, %0 ], [ %3, %.lr.ph ]
  %.not = icmp eq i32 %.0.lcssa, 2
  br i1 %.not, label %7, label %5

5:                                                ; preds = %._crit_edge
  %6 = tail call i32 @close(i32 noundef %.0.lcssa) #25
  br label %7

7:                                                ; preds = %5, %._crit_edge
  ret void
}